target datalayout = "e-m:e-p270:32:32-p271:32:32-p272:64:64-i64:64-i128:128-f80:128-n8:16:32:64-S128"
target triple = "x86_64-pc-linux-gnu"

%struct.Scheduler = type { ptr, ptr, i32, ptr, i32, i32, %union.pthread_mutex_t, i32, i32, %union.pthread_mutex_t, %union.pthread_cond_t, ptr, i32, ptr, i32, ptr, i32, ptr, i32, ptr, i32, i32, i32, %union.pthread_mutex_t, i64 }
%union.pthread_cond_t = type { %struct.__pthread_cond_s }
%struct.__pthread_cond_s = type { %union.__atomic_wide_counter, %union.__atomic_wide_counter, [2 x i32], [2 x i32], i32, i32, [2 x i32] }
%union.__atomic_wide_counter = type { i64 }
%union.pthread_mutex_t = type { %struct.__pthread_mutex_s }
%struct.__pthread_mutex_s = type { i32, i32, i32, i32, i32, i16, i16, %struct.__pthread_internal_list }
%struct.__pthread_internal_list = type { ptr, ptr }
%struct.SchTask = type { ptr, %struct.SchedulerNode, ptr, ptr, i64, i32 }
%struct.SchedulerNode = type { i32, i32, i32 }
%struct.SchEnc = type { ptr, %struct.SchedulerNode, ptr, ptr, i32, [2 x i32], ptr, i32, %struct.SchTask, ptr, i32, ptr }

@.str = private unnamed_addr constant [30 x i8] c"Assertion %s failed at %s:%d\0A\00", align 1
@.str.2 = private unnamed_addr constant [23 x i8] c"fftools/ffmpeg_sched.c\00", align 1
@.str.40 = private unnamed_addr constant [16 x i8] c"queue_size == 8\00", align 1
@sch_enc_class = internal constant { ptr, ptr, ptr, i32, i32, i32, i32, ptr, ptr, ptr, ptr, i32, [4 x i8] } { ptr @.str.41, ptr null, ptr null, i32 3932772, i32 0, i32 104, i32 0, ptr null, ptr null, ptr null, ptr null, i32 0, [4 x i8] zeroinitializer }, align 8

; Function Attrs: nounwind uwtable
define internal i32 @queue_alloc(ptr noundef %0, i32 noundef %1, i32 noundef %2, i32 noundef %3) #0 {
  %5 = alloca i32, align 4
  %6 = alloca ptr, align 8
  %7 = alloca i32, align 4
  %8 = alloca i32, align 4
  %9 = alloca i32, align 4
  %10 = alloca ptr, align 8
  %11 = alloca i32, align 4
  store ptr %0, ptr %6, align 8, !tbaa !114
  store i32 %1, ptr %7, align 4, !tbaa !12
  store i32 %2, ptr %8, align 4, !tbaa !12
  store i32 %3, ptr %9, align 4, !tbaa !12
  call void @llvm.lifetime.start.p0(i64 8, ptr %10) #9
  %12 = load i32, ptr %8, align 4, !tbaa !12
  %13 = icmp ule i32 %12, 0
  br i1 %13, label %14, label %20

14:                                               ; preds = %4
  %15 = load i32, ptr %9, align 4, !tbaa !12
  %16 = icmp eq i32 %15, 1
  br i1 %16, label %17, label %18

17:                                               ; preds = %14
  store i32 8, ptr %8, align 4, !tbaa !12
  br label %19

18:                                               ; preds = %14
  store i32 8, ptr %8, align 4, !tbaa !12
  br label %19

19:                                               ; preds = %18, %17
  br label %20

20:                                               ; preds = %19, %4
  %21 = load i32, ptr %9, align 4, !tbaa !12
  %22 = icmp eq i32 %21, 1
  br i1 %22, label %23, label %31

23:                                               ; preds = %20
  br label %24

24:                                               ; preds = %23
  %25 = load i32, ptr %8, align 4, !tbaa !12
  %26 = icmp eq i32 %25, 8
  br i1 %26, label %28, label %27

27:                                               ; preds = %24
  call void (ptr, i32, ptr, ...) @av_log(ptr noundef null, i32 noundef 0, ptr noundef @.str, ptr noundef @.str.40, ptr noundef @.str.2, i32 noundef 392)
  call void @abort() #10
  unreachable

28:                                               ; preds = %24
  br label %29

29:                                               ; preds = %28
  br label %30

30:                                               ; preds = %29
  br label %31

31:                                               ; preds = %30, %20
  %32 = load i32, ptr %7, align 4, !tbaa !12
  %33 = load i32, ptr %8, align 4, !tbaa !12
  %34 = zext i32 %33 to i64
  %35 = load i32, ptr %9, align 4, !tbaa !12
  %36 = icmp eq i32 %35, 0
  %37 = select i1 %36, i32 1, i32 0
  %38 = call ptr @tq_alloc(i32 noundef %32, i64 noundef %34, i32 noundef %37)
  store ptr %38, ptr %10, align 8, !tbaa !116
  %39 = load ptr, ptr %10, align 8, !tbaa !116
  %40 = icmp ne ptr %39, null
  br i1 %40, label %42, label %41

41:                                               ; preds = %31
  store i32 -12, ptr %5, align 4
  store i32 1, ptr %11, align 4
  br label %45

42:                                               ; preds = %31
  %43 = load ptr, ptr %10, align 8, !tbaa !116
  %44 = load ptr, ptr %6, align 8, !tbaa !114
  store ptr %43, ptr %44, align 8, !tbaa !116
  store i32 0, ptr %5, align 4
  store i32 1, ptr %11, align 4
  br label %45

45:                                               ; preds = %42, %41
  call void @llvm.lifetime.end.p0(i64 8, ptr %10) #9
  %46 = load i32, ptr %5, align 4
  ret i32 %46
}

; Function Attrs: nounwind uwtable
define internal void @task_init(ptr noundef %0, ptr noundef %1, i32 noundef %2, i32 noundef %3, ptr noundef %4, ptr noundef %5) #0 {
  %7 = alloca ptr, align 8
  %8 = alloca ptr, align 8
  %9 = alloca i32, align 4
  %10 = alloca i32, align 4
  %11 = alloca ptr, align 8
  %12 = alloca ptr, align 8
  store ptr %0, ptr %7, align 8, !tbaa !10
  store ptr %1, ptr %8, align 8, !tbaa !101
  store i32 %2, ptr %9, align 4, !tbaa !12
  store i32 %3, ptr %10, align 4, !tbaa !12
  store ptr %4, ptr %11, align 8, !tbaa !97
  store ptr %5, ptr %12, align 8, !tbaa !97
  %13 = load ptr, ptr %7, align 8, !tbaa !10
  %14 = load ptr, ptr %8, align 8, !tbaa !101
  %15 = getelementptr inbounds nuw %struct.SchTask, ptr %14, i32 0, i32 0
  store ptr %13, ptr %15, align 8, !tbaa !103
  %16 = load i32, ptr %9, align 4, !tbaa !12
  %17 = load ptr, ptr %8, align 8, !tbaa !101
  %18 = getelementptr inbounds nuw %struct.SchTask, ptr %17, i32 0, i32 1
  %19 = getelementptr inbounds nuw %struct.SchedulerNode, ptr %18, i32 0, i32 0
  store i32 %16, ptr %19, align 8, !tbaa !104
  %20 = load i32, ptr %10, align 4, !tbaa !12
  %21 = load ptr, ptr %8, align 8, !tbaa !101
  %22 = getelementptr inbounds nuw %struct.SchTask, ptr %21, i32 0, i32 1
  %23 = getelementptr inbounds nuw %struct.SchedulerNode, ptr %22, i32 0, i32 1
  store i32 %20, ptr %23, align 4, !tbaa !105
  %24 = load ptr, ptr %11, align 8, !tbaa !97
  %25 = load ptr, ptr %8, align 8, !tbaa !101
  %26 = getelementptr inbounds nuw %struct.SchTask, ptr %25, i32 0, i32 2
  store ptr %24, ptr %26, align 8, !tbaa !106
  %27 = load ptr, ptr %12, align 8, !tbaa !97
  %28 = load ptr, ptr %8, align 8, !tbaa !101
  %29 = getelementptr inbounds nuw %struct.SchTask, ptr %28, i32 0, i32 3
  store ptr %27, ptr %29, align 8, !tbaa !107
  ret void
}

; Function Attrs: nounwind uwtable
define i32 @sch_add_enc(ptr noundef %0, ptr noundef %1, ptr noundef %2, ptr noundef %3) #0 {
  %5 = alloca i32, align 4
  %6 = alloca ptr, align 8
  %7 = alloca ptr, align 8
  %8 = alloca ptr, align 8
  %9 = alloca ptr, align 8
  %10 = alloca i32, align 4
  %11 = alloca ptr, align 8
  %12 = alloca i32, align 4
  %13 = alloca i32, align 4
  store ptr %0, ptr %6, align 8, !tbaa !10
  store ptr %1, ptr %7, align 8, !tbaa !97
  store ptr %2, ptr %8, align 8, !tbaa !97
  store ptr %3, ptr %9, align 8, !tbaa !97
  call void @llvm.lifetime.start.p0(i64 4, ptr %10) #9
  %14 = load ptr, ptr %6, align 8, !tbaa !10
  %15 = getelementptr inbounds nuw %struct.Scheduler, ptr %14, i32 0, i32 14
  %16 = load i32, ptr %15, align 8, !tbaa !68
  store i32 %16, ptr %10, align 4, !tbaa !12
  call void @llvm.lifetime.start.p0(i64 8, ptr %11) #9
  call void @llvm.lifetime.start.p0(i64 4, ptr %12) #9
  %17 = load ptr, ptr %6, align 8, !tbaa !10
  %18 = getelementptr inbounds nuw %struct.Scheduler, ptr %17, i32 0, i32 13
  %19 = load ptr, ptr %6, align 8, !tbaa !10
  %20 = getelementptr inbounds nuw %struct.Scheduler, ptr %19, i32 0, i32 14
  %21 = load ptr, ptr %6, align 8, !tbaa !10
  %22 = getelementptr inbounds nuw %struct.Scheduler, ptr %21, i32 0, i32 14
  %23 = load i32, ptr %22, align 8, !tbaa !68
  %24 = add i32 %23, 1
  %25 = call i32 @grow_array(ptr noundef %18, i32 noundef 152, ptr noundef %20, i32 noundef %24)
  store i32 %25, ptr %12, align 4, !tbaa !12
  %26 = load i32, ptr %12, align 4, !tbaa !12
  %27 = icmp slt i32 %26, 0
  br i1 %27, label %28, label %30

28:                                               ; preds = %4
  %29 = load i32, ptr %12, align 4, !tbaa !12
  store i32 %29, ptr %5, align 4
  store i32 1, ptr %13, align 4
  br label %72

30:                                               ; preds = %4
  %31 = load ptr, ptr %6, align 8, !tbaa !10
  %32 = getelementptr inbounds nuw %struct.Scheduler, ptr %31, i32 0, i32 13
  %33 = load ptr, ptr %32, align 8, !tbaa !69
  %34 = load i32, ptr %10, align 4, !tbaa !12
  %35 = zext i32 %34 to i64
  %36 = getelementptr inbounds nuw %struct.SchEnc, ptr %33, i64 %35
  store ptr %36, ptr %11, align 8, !tbaa !70
  %37 = load ptr, ptr %11, align 8, !tbaa !70
  %38 = getelementptr inbounds nuw %struct.SchEnc, ptr %37, i32 0, i32 0
  store ptr @sch_enc_class, ptr %38, align 8, !tbaa !117
  %39 = load ptr, ptr %9, align 8, !tbaa !97
  %40 = load ptr, ptr %11, align 8, !tbaa !70
  %41 = getelementptr inbounds nuw %struct.SchEnc, ptr %40, i32 0, i32 6
  store ptr %39, ptr %41, align 8, !tbaa !120
  %42 = load ptr, ptr %11, align 8, !tbaa !70
  %43 = getelementptr inbounds nuw %struct.SchEnc, ptr %42, i32 0, i32 5
  %44 = getelementptr inbounds [2 x i32], ptr %43, i64 0, i64 0
  store i32 -1, ptr %44, align 4, !tbaa !12
  %45 = load ptr, ptr %11, align 8, !tbaa !70
  %46 = getelementptr inbounds nuw %struct.SchEnc, ptr %45, i32 0, i32 5
  %47 = getelementptr inbounds [2 x i32], ptr %46, i64 0, i64 1
  store i32 -1, ptr %47, align 4, !tbaa !12
  %48 = load ptr, ptr %6, align 8, !tbaa !10
  %49 = load ptr, ptr %11, align 8, !tbaa !70
  %50 = getelementptr inbounds nuw %struct.SchEnc, ptr %49, i32 0, i32 8
  %51 = load i32, ptr %10, align 4, !tbaa !12
  %52 = load ptr, ptr %7, align 8, !tbaa !97
  %53 = load ptr, ptr %8, align 8, !tbaa !97
  call void @task_init(ptr noundef %48, ptr noundef %50, i32 noundef 4, i32 noundef %51, ptr noundef %52, ptr noundef %53)
  %54 = call ptr @av_packet_alloc()
  %55 = load ptr, ptr %11, align 8, !tbaa !70
  %56 = getelementptr inbounds nuw %struct.SchEnc, ptr %55, i32 0, i32 11
  store ptr %54, ptr %56, align 8, !tbaa !121
  %57 = load ptr, ptr %11, align 8, !tbaa !70
  %58 = getelementptr inbounds nuw %struct.SchEnc, ptr %57, i32 0, i32 11
  %59 = load ptr, ptr %58, align 8, !tbaa !121
  %60 = icmp ne ptr %59, null
  br i1 %60, label %62, label %61

61:                                               ; preds = %30
  store i32 -12, ptr %5, align 4
  store i32 1, ptr %13, align 4
  br label %72

62:                                               ; preds = %30
  %63 = load ptr, ptr %11, align 8, !tbaa !70
  %64 = getelementptr inbounds nuw %struct.SchEnc, ptr %63, i32 0, i32 9
  %65 = call i32 @queue_alloc(ptr noundef %64, i32 noundef 1, i32 noundef 0, i32 noundef 1)
  store i32 %65, ptr %12, align 4, !tbaa !12
  %66 = load i32, ptr %12, align 4, !tbaa !12
  %67 = icmp slt i32 %66, 0
  br i1 %67, label %68, label %70

68:                                               ; preds = %62
  %69 = load i32, ptr %12, align 4, !tbaa !12
  store i32 %69, ptr %5, align 4
  store i32 1, ptr %13, align 4
  br label %72

70:                                               ; preds = %62
  %71 = load i32, ptr %10, align 4, !tbaa !12
  store i32 %71, ptr %5, align 4
  store i32 1, ptr %13, align 4
  br label %72

72:                                               ; preds = %70, %68, %61, %28
  call void @llvm.lifetime.end.p0(i64 4, ptr %12) #9
  call void @llvm.lifetime.end.p0(i64 8, ptr %11) #9
  call void @llvm.lifetime.end.p0(i64 4, ptr %10) #9
  %73 = load i32, ptr %5, align 4
  ret i32 %73
}