; Function Attrs: nounwind uwtable
define i32 @sch_add_enc(ptr noundef %0, ptr noundef %1, ptr noundef %2, ptr noundef %3) local_unnamed_addr #0 {
  %5 = getelementptr inbounds nuw i8, ptr %0, i64 200
  %6 = load i32, ptr %5, align 8, !tbaa !49
  %7 = getelementptr inbounds nuw i8, ptr %0, i64 192
  %8 = add i32 %6, 1
  %9 = tail call i32 @grow_array(ptr noundef nonnull %7, i32 noundef 152, ptr noundef nonnull %5, i32 noundef %8) #9
  %10 = icmp slt i32 %9, 0
  br i1 %10, label %28, label %11

11:                                               ; preds = %4
  %12 = load ptr, ptr %7, align 8, !tbaa !60
  %13 = zext i32 %6 to i64
  %14 = getelementptr inbounds nuw %struct.SchEnc, ptr %12, i64 %13
  store ptr @sch_enc_class, ptr %14, align 8, !tbaa !100
  %15 = getelementptr inbounds nuw i8, ptr %14, i64 56
  store ptr %3, ptr %15, align 8, !tbaa !103
  %16 = getelementptr inbounds nuw i8, ptr %14, i64 44
  store i32 -1, ptr %16, align 4, !tbaa !68
  %17 = getelementptr inbounds nuw i8, ptr %14, i64 48
  store i32 -1, ptr %17, align 4, !tbaa !68
  %18 = getelementptr inbounds nuw i8, ptr %14, i64 72
  store ptr %0, ptr %18, align 8, !tbaa !89
  %19 = getelementptr inbounds nuw i8, ptr %14, i64 80
  store i32 4, ptr %19, align 8, !tbaa !90
  %20 = getelementptr inbounds nuw i8, ptr %14, i64 84
  store i32 %6, ptr %20, align 4, !tbaa !91
  %21 = getelementptr inbounds nuw i8, ptr %14, i64 96
  store ptr %1, ptr %21, align 8, !tbaa !92
  %22 = getelementptr inbounds nuw i8, ptr %14, i64 104
  store ptr %2, ptr %22, align 8, !tbaa !93
  %23 = tail call ptr @av_packet_alloc() #9
  %24 = getelementptr inbounds nuw i8, ptr %14, i64 144
  store ptr %23, ptr %24, align 8, !tbaa !104
  %.not = icmp eq ptr %23, null
  br i1 %.not, label %28, label %25

25:                                               ; preds = %11
  %26 = tail call ptr @tq_alloc(i32 noundef 1, i64 noundef 8, i32 noundef 0) #9
  %.not.i = icmp eq ptr %26, null
  br i1 %.not.i, label %28, label %queue_alloc.exit

queue_alloc.exit:                                 ; preds = %25
  %27 = getelementptr inbounds nuw i8, ptr %14, i64 128
  store ptr %26, ptr %27, align 8, !tbaa !99
  br label %28

28:                                               ; preds = %queue_alloc.exit, %25, %11, %4
  %.0 = phi i32 [ %9, %4 ], [ -12, %11 ], [ %6, %queue_alloc.exit ], [ -12, %25 ]
  ret i32 %.0
}